; Function Attrs: nounwind uwtable
define void @SplashClose() local_unnamed_addr #2 {
  %.b.i = load i1, ptr @SplashGetInstance.preInitialized, align 4
  br i1 %.b.i, label %SplashGetInstance.exit, label %SplashGetInstance.exit.thread

SplashGetInstance.exit.thread:                    ; preds = %0
  tail call void @llvm.memset.p0.i64(ptr noundef nonnull align 8 dereferenceable(11808) @SplashGetInstance.splash, i8 0, i64 11808, i1 false)
  store i32 -1, ptr getelementptr inbounds (i8, ptr @SplashGetInstance.splash, i64 10628), align 4
  store i1 true, ptr @SplashGetInstance.preInitialized, align 4
  br label %3

SplashGetInstance.exit:                           ; preds = %0
  %.pre = load i32, ptr getelementptr inbounds (i8, ptr @SplashGetInstance.splash, i64 11668), align 4
  %1 = icmp sgt i32 %.pre, 0
  br i1 %1, label %2, label %3

2:                                                ; preds = %SplashGetInstance.exit
  tail call void @SplashLock(ptr noundef nonnull @SplashGetInstance.splash) #20
  store i32 -1, ptr getelementptr inbounds (i8, ptr @SplashGetInstance.splash, i64 11668), align 4
  tail call void @SplashClosePlatform(ptr noundef nonnull @SplashGetInstance.splash) #20
  tail call void @SplashUnlock(ptr noundef nonnull @SplashGetInstance.splash) #20
  br label %3

3:                                                ; preds = %SplashGetInstance.exit.thread, %2, %SplashGetInstance.exit
  ret void
}